#include <math.h>
#include <stdio.h>
#include <stdlib.h>
#include <string.h>



void main(){
	int l,c,num[8][8],i,j,max[8];
	scanf("%d,%d",&l,&c);
	for(i=0;i<l;i++)
		for(j=0;j<c;j++)
			scanf("%d",&num[i][j]);
	for(i=0;i<l;i++){
		max[i]=0;
		for(j=1;j<c;j++)
			if(num[i][max[i]]<num[i][j]) max[i]=j;
	}
	for(i=0;i<l;i++){
		for(j=0;j<l;j++)
			if(num[i][max[i]]>num[j][max[i]]) break;
		if(j>=l){printf("%d+%d",i,max[i]);return;}
	}
	printf("No");
}
